; Function Attrs: mustprogress uwtable
define void @_ZN26MLRenderingNoShadingActionC2EN3vcg20GLMeshAttributesInfo18PRIMITIVE_MODALITYEP7QObject(ptr noundef nonnull align 8 dereferenceable(20) %0, i32 noundef %1, ptr noundef %2) unnamed_addr #9 align 2 personality ptr @__gxx_personality_v0 {
  %4 = alloca %class.QString, align 8
  %5 = alloca %class.QString, align 8
  tail call void @_ZN17MLRenderingActionC2EP7QObject(ptr noundef nonnull align 8 dereferenceable(16) %0, ptr noundef %2)
  store ptr getelementptr inbounds ({ [19 x ptr] }, ptr @_ZTV26MLRenderingNoShadingAction, i64 0, i32 0, i64 2), ptr %0, align 8
  %6 = getelementptr inbounds i8, ptr %0, i64 16
  store i32 %1, ptr %6, align 8
  %7 = invoke noundef ptr @_ZN7QString16fromAscii_helperEPKci(ptr noundef nonnull @.str.27, i32 noundef 4)
          to label %8 unwind label %21

8:                                                ; preds = %3
  store ptr %7, ptr %4, align 8
  invoke void @_ZN7QAction7setTextERK7QString(ptr noundef nonnull align 8 dereferenceable(16) %0, ptr noundef nonnull align 8 dereferenceable(8) %4)
          to label %9 unwind label %23

9:                                                ; preds = %8
  %10 = load ptr, ptr %4, align 8
  %11 = load atomic i32, ptr %10 monotonic, align 4
  switch i32 %11, label %_ZN9QtPrivate8RefCount5derefEv.exit.i [
    i32 0, label %_ZN9QtPrivate8RefCount5derefEv.exit.thread2.i
    i32 -1, label %_ZN7QStringD2Ev.exit
  ]

_ZN9QtPrivate8RefCount5derefEv.exit.i:            ; preds = %9
  %12 = atomicrmw sub ptr %10, i32 1 seq_cst, align 4
  %.not.i = icmp eq i32 %12, 1
  br i1 %.not.i, label %_ZN9QtPrivate8RefCount5derefEv.exit._ZN9QtPrivate8RefCount5derefEv.exit.thread2_crit_edge.i, label %_ZN7QStringD2Ev.exit

_ZN9QtPrivate8RefCount5derefEv.exit._ZN9QtPrivate8RefCount5derefEv.exit.thread2_crit_edge.i: ; preds = %_ZN9QtPrivate8RefCount5derefEv.exit.i
  %.pre.i = load ptr, ptr %4, align 8
  br label %_ZN9QtPrivate8RefCount5derefEv.exit.thread2.i

_ZN9QtPrivate8RefCount5derefEv.exit.thread2.i:    ; preds = %_ZN9QtPrivate8RefCount5derefEv.exit._ZN9QtPrivate8RefCount5derefEv.exit.thread2_crit_edge.i, %9
  %13 = phi ptr [ %.pre.i, %_ZN9QtPrivate8RefCount5derefEv.exit._ZN9QtPrivate8RefCount5derefEv.exit.thread2_crit_edge.i ], [ %10, %9 ]
  call void @_ZN10QArrayData10deallocateEPS_mm(ptr noundef %13, i64 noundef 2, i64 noundef 8) #21
  br label %_ZN7QStringD2Ev.exit

_ZN7QStringD2Ev.exit:                             ; preds = %9, %_ZN9QtPrivate8RefCount5derefEv.exit.i, %_ZN9QtPrivate8RefCount5derefEv.exit.thread2.i
  %14 = invoke noundef ptr @_ZN7QString16fromAscii_helperEPKci(ptr noundef nonnull @.str.28, i32 noundef 12)
          to label %15 unwind label %21

15:                                               ; preds = %_ZN7QStringD2Ev.exit
  store ptr %14, ptr %5, align 8
  invoke void @_ZN7QAction10setToolTipERK7QString(ptr noundef nonnull align 8 dereferenceable(16) %0, ptr noundef nonnull align 8 dereferenceable(8) %5)
          to label %16 unwind label %25

16:                                               ; preds = %15
  %17 = load ptr, ptr %5, align 8
  %18 = load atomic i32, ptr %17 monotonic, align 4
  switch i32 %18, label %_ZN9QtPrivate8RefCount5derefEv.exit.i8 [
    i32 0, label %_ZN9QtPrivate8RefCount5derefEv.exit.thread2.i7
    i32 -1, label %_ZN7QStringD2Ev.exit12
  ]

_ZN9QtPrivate8RefCount5derefEv.exit.i8:           ; preds = %16
  %19 = atomicrmw sub ptr %17, i32 1 seq_cst, align 4
  %.not.i9 = icmp eq i32 %19, 1
  br i1 %.not.i9, label %_ZN9QtPrivate8RefCount5derefEv.exit._ZN9QtPrivate8RefCount5derefEv.exit.thread2_crit_edge.i10, label %_ZN7QStringD2Ev.exit12

_ZN9QtPrivate8RefCount5derefEv.exit._ZN9QtPrivate8RefCount5derefEv.exit.thread2_crit_edge.i10: ; preds = %_ZN9QtPrivate8RefCount5derefEv.exit.i8
  %.pre.i11 = load ptr, ptr %5, align 8
  br label %_ZN9QtPrivate8RefCount5derefEv.exit.thread2.i7

_ZN9QtPrivate8RefCount5derefEv.exit.thread2.i7:   ; preds = %_ZN9QtPrivate8RefCount5derefEv.exit._ZN9QtPrivate8RefCount5derefEv.exit.thread2_crit_edge.i10, %16
  %20 = phi ptr [ %.pre.i11, %_ZN9QtPrivate8RefCount5derefEv.exit._ZN9QtPrivate8RefCount5derefEv.exit.thread2_crit_edge.i10 ], [ %17, %16 ]
  call void @_ZN10QArrayData10deallocateEPS_mm(ptr noundef %20, i64 noundef 2, i64 noundef 8) #21
  br label %_ZN7QStringD2Ev.exit12

_ZN7QStringD2Ev.exit12:                           ; preds = %16, %_ZN9QtPrivate8RefCount5derefEv.exit.i8, %_ZN9QtPrivate8RefCount5derefEv.exit.thread2.i7
  ret void

21:                                               ; preds = %_ZN7QStringD2Ev.exit, %3
  %22 = landingpad { ptr, i32 }
          cleanup
  br label %27

23:                                               ; preds = %8
  %24 = landingpad { ptr, i32 }
          cleanup
  call void @_ZN7QStringD2Ev(ptr noundef nonnull align 8 dereferenceable(8) %4) #21
  br label %27

25:                                               ; preds = %15
  %26 = landingpad { ptr, i32 }
          cleanup
  call void @_ZN7QStringD2Ev(ptr noundef nonnull align 8 dereferenceable(8) %5) #21
  br label %27

27:                                               ; preds = %25, %23, %21
  %.pn = phi { ptr, i32 } [ %26, %25 ], [ %22, %21 ], [ %24, %23 ]
  call void @_ZN7QActionD2Ev(ptr noundef nonnull align 8 dereferenceable(16) %0) #21
  resume { ptr, i32 } %.pn
}